; Function Attrs: mustprogress uwtable
define hidden noundef zeroext i1 @Z3_algebraic_is_value_core(ptr noundef %0, ptr noundef %1) local_unnamed_addr #3 {
  %3 = getelementptr inbounds nuw i8, ptr %1, i64 4
  %4 = load i32, ptr %3, align 4
  %5 = and i32 %4, 65535
  %6 = add nsw i32 %5, -5
  %7 = icmp ult i32 %6, -2
  br i1 %7, label %8, label %23

8:                                                ; preds = %2
  %9 = icmp eq i32 %5, 0
  br i1 %9, label %10, label %_ZNK10arith_util10is_numeralEPK4expr.exit.thread

10:                                               ; preds = %8
  %11 = getelementptr inbounds nuw i8, ptr %1, i64 16
  %12 = load ptr, ptr %11, align 8, !tbaa !3
  %13 = getelementptr inbounds nuw i8, ptr %12, i64 24
  %14 = load ptr, ptr %13, align 8, !tbaa !13
  %.not.i.i.i.i.i = icmp eq ptr %14, null
  br i1 %.not.i.i.i.i.i, label %_ZNK10arith_util10is_numeralEPK4expr.exit.thread, label %_ZNK10arith_util10is_numeralEPK4expr.exit

_ZNK10arith_util10is_numeralEPK4expr.exit:        ; preds = %10
  %15 = load i32, ptr %14, align 8, !tbaa !18
  %16 = icmp eq i32 %15, 5
  %17 = getelementptr inbounds nuw i8, ptr %14, i64 4
  %18 = load i32, ptr %17, align 4
  %19 = icmp eq i32 %18, 0
  %20 = select i1 %16, i1 %19, i1 false
  br i1 %20, label %23, label %_ZNK10arith_util10is_numeralEPK4expr.exit.thread

_ZNK10arith_util10is_numeralEPK4expr.exit.thread: ; preds = %10, %8, %_ZNK10arith_util10is_numeralEPK4expr.exit
  %21 = getelementptr inbounds nuw i8, ptr %0, i64 296
  %22 = tail call noundef zeroext i1 @_ZNK17arith_recognizers31is_irrational_algebraic_numeralEPK4expr(ptr noundef nonnull align 1 dereferenceable(1) %21, ptr noundef nonnull %1)
  br label %23

23:                                               ; preds = %_ZNK10arith_util10is_numeralEPK4expr.exit, %_ZNK10arith_util10is_numeralEPK4expr.exit.thread, %2
  %24 = phi i1 [ false, %2 ], [ true, %_ZNK10arith_util10is_numeralEPK4expr.exit ], [ %22, %_ZNK10arith_util10is_numeralEPK4expr.exit.thread ]
  ret i1 %24
}